; Function Attrs: mustprogress nounwind uwtable
define internal fastcc void @_ZNSt6vectorIN32pxrInternal_v0_24__pxrReserved__7VtArrayISt10shared_ptrINS0_12_GLOBAL__N_116_SkinningAdapterEEEESaIS6_EED2Ev(ptr noundef nonnull readonly align 8 captures(none) dereferenceable(24) %0) unnamed_addr #3 align 2 personality ptr @__gxx_personality_v0 {
  %2 = load ptr, ptr %0, align 8
  %3 = getelementptr inbounds nuw i8, ptr %0, i64 8
  %4 = load ptr, ptr %3, align 8
  %.not4.i.i.i = icmp eq ptr %2, %4
  br i1 %.not4.i.i.i, label %_ZSt8_DestroyIPN32pxrInternal_v0_24__pxrReserved__7VtArrayISt10shared_ptrINS0_12_GLOBAL__N_116_SkinningAdapterEEEES6_EvT_S8_RSaIT0_E.exit, label %.lr.ph.i.i.i

.lr.ph.i.i.i:                                     ; preds = %1, %_ZSt8_DestroyIN32pxrInternal_v0_24__pxrReserved__7VtArrayISt10shared_ptrINS0_12_GLOBAL__N_116_SkinningAdapterEEEEEvPT_.exit.i.i.i
  %.05.i.i.i = phi ptr [ %8, %_ZSt8_DestroyIN32pxrInternal_v0_24__pxrReserved__7VtArrayISt10shared_ptrINS0_12_GLOBAL__N_116_SkinningAdapterEEEEEvPT_.exit.i.i.i ], [ %2, %1 ]
  invoke fastcc void @_ZN32pxrInternal_v0_24__pxrReserved__7VtArrayISt10shared_ptrINS_12_GLOBAL__N_116_SkinningAdapterEEE7_DecRefEv(ptr noundef nonnull align 8 dereferenceable(40) %.05.i.i.i)
          to label %_ZSt8_DestroyIN32pxrInternal_v0_24__pxrReserved__7VtArrayISt10shared_ptrINS0_12_GLOBAL__N_116_SkinningAdapterEEEEEvPT_.exit.i.i.i unwind label %5

5:                                                ; preds = %.lr.ph.i.i.i
  %6 = landingpad { ptr, i32 }
          catch ptr null
  %7 = extractvalue { ptr, i32 } %6, 0
  tail call void @__clang_call_terminate(ptr %7) #25
  unreachable

_ZSt8_DestroyIN32pxrInternal_v0_24__pxrReserved__7VtArrayISt10shared_ptrINS0_12_GLOBAL__N_116_SkinningAdapterEEEEEvPT_.exit.i.i.i: ; preds = %.lr.ph.i.i.i
  %8 = getelementptr inbounds nuw i8, ptr %.05.i.i.i, i64 40
  %.not.i.i.i = icmp eq ptr %8, %4
  br i1 %.not.i.i.i, label %_ZSt8_DestroyIPN32pxrInternal_v0_24__pxrReserved__7VtArrayISt10shared_ptrINS0_12_GLOBAL__N_116_SkinningAdapterEEEES6_EvT_S8_RSaIT0_E.exitthread-pre-split, label %.lr.ph.i.i.i, !llvm.loop !146

_ZSt8_DestroyIPN32pxrInternal_v0_24__pxrReserved__7VtArrayISt10shared_ptrINS0_12_GLOBAL__N_116_SkinningAdapterEEEES6_EvT_S8_RSaIT0_E.exitthread-pre-split: ; preds = %_ZSt8_DestroyIN32pxrInternal_v0_24__pxrReserved__7VtArrayISt10shared_ptrINS0_12_GLOBAL__N_116_SkinningAdapterEEEEEvPT_.exit.i.i.i
  %.val.pr = load ptr, ptr %0, align 8
  br label %_ZSt8_DestroyIPN32pxrInternal_v0_24__pxrReserved__7VtArrayISt10shared_ptrINS0_12_GLOBAL__N_116_SkinningAdapterEEEES6_EvT_S8_RSaIT0_E.exit

_ZSt8_DestroyIPN32pxrInternal_v0_24__pxrReserved__7VtArrayISt10shared_ptrINS0_12_GLOBAL__N_116_SkinningAdapterEEEES6_EvT_S8_RSaIT0_E.exit: ; preds = %_ZSt8_DestroyIPN32pxrInternal_v0_24__pxrReserved__7VtArrayISt10shared_ptrINS0_12_GLOBAL__N_116_SkinningAdapterEEEES6_EvT_S8_RSaIT0_E.exitthread-pre-split, %1
  %.val = phi ptr [ %.val.pr, %_ZSt8_DestroyIPN32pxrInternal_v0_24__pxrReserved__7VtArrayISt10shared_ptrINS0_12_GLOBAL__N_116_SkinningAdapterEEEES6_EvT_S8_RSaIT0_E.exitthread-pre-split ], [ %2, %1 ]
  %.not.i.i = icmp eq ptr %.val, null
  br i1 %.not.i.i, label %_ZNSt12_Vector_baseIN32pxrInternal_v0_24__pxrReserved__7VtArrayISt10shared_ptrINS0_12_GLOBAL__N_116_SkinningAdapterEEEESaIS6_EED2Ev.exit, label %9

9:                                                ; preds = %_ZSt8_DestroyIPN32pxrInternal_v0_24__pxrReserved__7VtArrayISt10shared_ptrINS0_12_GLOBAL__N_116_SkinningAdapterEEEES6_EvT_S8_RSaIT0_E.exit
  %10 = getelementptr inbounds nuw i8, ptr %0, i64 16
  %.val1 = load ptr, ptr %10, align 8
  %11 = ptrtoint ptr %.val1 to i64
  %12 = ptrtoint ptr %.val to i64
  %13 = sub i64 %11, %12
  tail call void @_ZdlPvm(ptr noundef nonnull %.val, i64 noundef %13) #26
  br label %_ZNSt12_Vector_baseIN32pxrInternal_v0_24__pxrReserved__7VtArrayISt10shared_ptrINS0_12_GLOBAL__N_116_SkinningAdapterEEEESaIS6_EED2Ev.exit

_ZNSt12_Vector_baseIN32pxrInternal_v0_24__pxrReserved__7VtArrayISt10shared_ptrINS0_12_GLOBAL__N_116_SkinningAdapterEEEESaIS6_EED2Ev.exit: ; preds = %_ZSt8_DestroyIPN32pxrInternal_v0_24__pxrReserved__7VtArrayISt10shared_ptrINS0_12_GLOBAL__N_116_SkinningAdapterEEEES6_EvT_S8_RSaIT0_E.exit, %9
  ret void
}